target datalayout = "e-m:e-p270:32:32-p271:32:32-p272:64:64-i64:64-i128:128-f80:128-n8:16:32:64-S128"
target triple = "x86_64-pc-linux-gnu"

%"struct.faiss::PermutationObjective" = type <{ ptr, i32, [4 x i8] }>
%"struct.faiss::ReproduceDistancesObjective" = type { %"struct.faiss::PermutationObjective.base", double, %"class.std::vector.3", ptr, %"class.std::vector.3" }
%"struct.faiss::PermutationObjective.base" = type <{ ptr, i32 }>
%"class.std::vector.3" = type { %"struct.std::_Vector_base.4" }
%"struct.std::_Vector_base.4" = type { %"struct.std::_Vector_base<double, std::allocator<double>>::_Vector_impl" }
%"struct.std::_Vector_base<double, std::allocator<double>>::_Vector_impl" = type { %"struct.std::_Vector_base<double, std::allocator<double>>::_Vector_impl_data" }
%"struct.std::_Vector_base<double, std::allocator<double>>::_Vector_impl_data" = type { ptr, ptr, ptr }

; Function Attrs: mustprogress nounwind uwtable
define linkonce_odr noundef double @_ZN5faiss27ReproduceDistancesObjective3sqrEd(double noundef %0) #1 comdat align 2 {
  %2 = alloca double, align 8
  store double %0, ptr %2, align 8, !tbaa !15
  %3 = load double, ptr %2, align 8, !tbaa !15
  %4 = load double, ptr %2, align 8, !tbaa !15
  %5 = fmul double %3, %4
  ret double %5
}

; Function Attrs: mustprogress nounwind uwtable
define noundef double @_ZNK5faiss27ReproduceDistancesObjective14get_source_disEii(ptr noundef nonnull align 8 dereferenceable(80) %0, i32 noundef %1, i32 noundef %2) #1 align 2 {
  %4 = alloca ptr, align 8
  %5 = alloca i32, align 4
  %6 = alloca i32, align 4
  store ptr %0, ptr %4, align 8, !tbaa !21
  store i32 %1, ptr %5, align 4, !tbaa !11
  store i32 %2, ptr %6, align 4, !tbaa !11
  %7 = load ptr, ptr %4, align 8
  %8 = getelementptr inbounds nuw %"struct.faiss::ReproduceDistancesObjective", ptr %7, i32 0, i32 2
  %9 = load i32, ptr %5, align 4, !tbaa !11
  %10 = getelementptr inbounds nuw %"struct.faiss::PermutationObjective", ptr %7, i32 0, i32 1
  %11 = load i32, ptr %10, align 8, !tbaa !17
  %12 = mul nsw i32 %9, %11
  %13 = load i32, ptr %6, align 4, !tbaa !11
  %14 = add nsw i32 %12, %13
  %15 = sext i32 %14 to i64
  %16 = call noundef nonnull align 8 dereferenceable(8) ptr @_ZNKSt6vectorIdSaIdEEixEm(ptr noundef nonnull align 8 dereferenceable(24) %8, i64 noundef %15) #16
  %17 = load double, ptr %16, align 8, !tbaa !15
  ret double %17
}

; Function Attrs: mustprogress nounwind uwtable
define linkonce_odr noundef nonnull align 8 dereferenceable(8) ptr @_ZNKSt6vectorIdSaIdEEixEm(ptr noundef nonnull align 8 dereferenceable(24) %0, i64 noundef %1) #1 comdat align 2 {
  %3 = alloca ptr, align 8
  %4 = alloca i64, align 8
  store ptr %0, ptr %3, align 8, !tbaa !112
  store i64 %1, ptr %4, align 8, !tbaa !41
  %5 = load ptr, ptr %3, align 8
  %6 = getelementptr inbounds nuw %"struct.std::_Vector_base.4", ptr %5, i32 0, i32 0
  %7 = getelementptr inbounds nuw %"struct.std::_Vector_base<double, std::allocator<double>>::_Vector_impl_data", ptr %6, i32 0, i32 0
  %8 = load ptr, ptr %7, align 8, !tbaa !114
  %9 = load i64, ptr %4, align 8, !tbaa !41
  %10 = getelementptr inbounds nuw double, ptr %8, i64 %9
  ret ptr %10
}

; Function Attrs: mustprogress uwtable
define noundef double @_ZNK5faiss27ReproduceDistancesObjective12compute_costEPKi(ptr noundef nonnull align 8 dereferenceable(80) %0, ptr noundef %1) unnamed_addr #0 align 2 {
  %3 = alloca ptr, align 8
  %4 = alloca ptr, align 8
  %5 = alloca double, align 8
  %6 = alloca i32, align 4
  %7 = alloca i32, align 4
  %8 = alloca i32, align 4
  %9 = alloca double, align 8
  %10 = alloca double, align 8
  %11 = alloca double, align 8
  store ptr %0, ptr %3, align 8, !tbaa !21
  store ptr %1, ptr %4, align 8, !tbaa !9
  %12 = load ptr, ptr %3, align 8
  call void @llvm.lifetime.start.p0(i64 8, ptr %5) #16
  store double 0.000000e+00, ptr %5, align 8, !tbaa !15
  call void @llvm.lifetime.start.p0(i64 4, ptr %6) #16
  store i32 0, ptr %6, align 4, !tbaa !11
  br label %13

13:                                               ; preds = %70, %2
  %14 = load i32, ptr %6, align 4, !tbaa !11
  %15 = getelementptr inbounds nuw %"struct.faiss::PermutationObjective", ptr %12, i32 0, i32 1
  %16 = load i32, ptr %15, align 8, !tbaa !17
  %17 = icmp slt i32 %14, %16
  br i1 %17, label %19, label %18

18:                                               ; preds = %13
  store i32 2, ptr %7, align 4
  call void @llvm.lifetime.end.p0(i64 4, ptr %6) #16
  br label %73

19:                                               ; preds = %13
  call void @llvm.lifetime.start.p0(i64 4, ptr %8) #16
  store i32 0, ptr %8, align 4, !tbaa !11
  br label %20

20:                                               ; preds = %66, %19
  %21 = load i32, ptr %8, align 4, !tbaa !11
  %22 = getelementptr inbounds nuw %"struct.faiss::PermutationObjective", ptr %12, i32 0, i32 1
  %23 = load i32, ptr %22, align 8, !tbaa !17
  %24 = icmp slt i32 %21, %23
  br i1 %24, label %26, label %25

25:                                               ; preds = %20
  store i32 5, ptr %7, align 4
  call void @llvm.lifetime.end.p0(i64 4, ptr %8) #16
  br label %69

26:                                               ; preds = %20
  call void @llvm.lifetime.start.p0(i64 8, ptr %9) #16
  %27 = getelementptr inbounds nuw %"struct.faiss::ReproduceDistancesObjective", ptr %12, i32 0, i32 3
  %28 = load ptr, ptr %27, align 8, !tbaa !23
  %29 = load i32, ptr %6, align 4, !tbaa !11
  %30 = getelementptr inbounds nuw %"struct.faiss::PermutationObjective", ptr %12, i32 0, i32 1
  %31 = load i32, ptr %30, align 8, !tbaa !17
  %32 = mul nsw i32 %29, %31
  %33 = load i32, ptr %8, align 4, !tbaa !11
  %34 = add nsw i32 %32, %33
  %35 = sext i32 %34 to i64
  %36 = getelementptr inbounds double, ptr %28, i64 %35
  %37 = load double, ptr %36, align 8, !tbaa !15
  store double %37, ptr %9, align 8, !tbaa !15
  call void @llvm.lifetime.start.p0(i64 8, ptr %10) #16
  %38 = getelementptr inbounds nuw %"struct.faiss::ReproduceDistancesObjective", ptr %12, i32 0, i32 4
  %39 = load i32, ptr %6, align 4, !tbaa !11
  %40 = getelementptr inbounds nuw %"struct.faiss::PermutationObjective", ptr %12, i32 0, i32 1
  %41 = load i32, ptr %40, align 8, !tbaa !17
  %42 = mul nsw i32 %39, %41
  %43 = load i32, ptr %8, align 4, !tbaa !11
  %44 = add nsw i32 %42, %43
  %45 = sext i32 %44 to i64
  %46 = call noundef nonnull align 8 dereferenceable(8) ptr @_ZNKSt6vectorIdSaIdEEixEm(ptr noundef nonnull align 8 dereferenceable(24) %38, i64 noundef %45) #16
  %47 = load double, ptr %46, align 8, !tbaa !15
  store double %47, ptr %10, align 8, !tbaa !15
  call void @llvm.lifetime.start.p0(i64 8, ptr %11) #16
  %48 = load ptr, ptr %4, align 8, !tbaa !9
  %49 = load i32, ptr %6, align 4, !tbaa !11
  %50 = sext i32 %49 to i64
  %51 = getelementptr inbounds i32, ptr %48, i64 %50
  %52 = load i32, ptr %51, align 4, !tbaa !11
  %53 = load ptr, ptr %4, align 8, !tbaa !9
  %54 = load i32, ptr %8, align 4, !tbaa !11
  %55 = sext i32 %54 to i64
  %56 = getelementptr inbounds i32, ptr %53, i64 %55
  %57 = load i32, ptr %56, align 4, !tbaa !11
  %58 = call noundef double @_ZNK5faiss27ReproduceDistancesObjective14get_source_disEii(ptr noundef nonnull align 8 dereferenceable(80) %12, i32 noundef %52, i32 noundef %57)
  store double %58, ptr %11, align 8, !tbaa !15
  %59 = load double, ptr %10, align 8, !tbaa !15
  %60 = load double, ptr %9, align 8, !tbaa !15
  %61 = load double, ptr %11, align 8, !tbaa !15
  %62 = fsub double %60, %61
  %63 = call noundef double @_ZN5faiss27ReproduceDistancesObjective3sqrEd(double noundef %62)
  %64 = load double, ptr %5, align 8, !tbaa !15
  %65 = call double @llvm.fmuladd.f64(double %59, double %63, double %64)
  store double %65, ptr %5, align 8, !tbaa !15
  call void @llvm.lifetime.end.p0(i64 8, ptr %11) #16
  call void @llvm.lifetime.end.p0(i64 8, ptr %10) #16
  call void @llvm.lifetime.end.p0(i64 8, ptr %9) #16
  br label %66

66:                                               ; preds = %26
  %67 = load i32, ptr %8, align 4, !tbaa !11
  %68 = add nsw i32 %67, 1
  store i32 %68, ptr %8, align 4, !tbaa !11
  br label %20, !llvm.loop !30

69:                                               ; preds = %25
  br label %70

70:                                               ; preds = %69
  %71 = load i32, ptr %6, align 4, !tbaa !11
  %72 = add nsw i32 %71, 1
  store i32 %72, ptr %6, align 4, !tbaa !11
  br label %13, !llvm.loop !31

73:                                               ; preds = %18
  %74 = load double, ptr %5, align 8, !tbaa !15
  store i32 1, ptr %7, align 4
  call void @llvm.lifetime.end.p0(i64 8, ptr %5) #16
  ret double %74
}