; Function Attrs: mustprogress nofree norecurse nosync nounwind willreturn memory(read, inaccessiblemem: none) uwtable
define noundef double @_ZNK5faiss27ReproduceDistancesObjective12compute_costEPKi(ptr noundef nonnull readonly align 8 captures(none) dereferenceable(80) %0, ptr noundef readonly captures(none) %1) unnamed_addr #2 align 2 {
  %3 = getelementptr inbounds nuw i8, ptr %0, i64 8
  %4 = load i32, ptr %3, align 8, !tbaa !7
  %5 = icmp sgt i32 %4, 0
  br i1 %5, label %.preheader.lr.ph, label %._crit_edge24

.preheader.lr.ph:                                 ; preds = %2
  %6 = getelementptr inbounds nuw i8, ptr %0, i64 48
  %7 = load ptr, ptr %6, align 8
  %8 = getelementptr inbounds nuw i8, ptr %0, i64 56
  %9 = load ptr, ptr %8, align 8
  %10 = getelementptr inbounds nuw i8, ptr %0, i64 24
  %11 = load ptr, ptr %10, align 8
  %12 = zext nneg i32 %4 to i64
  br label %.preheader.us

.preheader.us:                                    ; preds = %._crit_edge.us, %.preheader.lr.ph
  %indvars.iv27 = phi i64 [ %indvars.iv.next28, %._crit_edge.us ], [ 0, %.preheader.lr.ph ]
  %.023.us = phi double [ %31, %._crit_edge.us ], [ 0.000000e+00, %.preheader.lr.ph ]
  %13 = mul nuw nsw i64 %indvars.iv27, %12
  %14 = getelementptr inbounds nuw i32, ptr %1, i64 %indvars.iv27
  %15 = load i32, ptr %14, align 4, !tbaa !11
  %16 = mul nsw i32 %15, %4
  br label %17

17:                                               ; preds = %.preheader.us, %17
  %indvars.iv = phi i64 [ 0, %.preheader.us ], [ %indvars.iv.next, %17 ]
  %.121.us = phi double [ %.023.us, %.preheader.us ], [ %31, %17 ]
  %18 = add nuw nsw i64 %indvars.iv, %13
  %19 = getelementptr inbounds nuw double, ptr %7, i64 %18
  %20 = load double, ptr %19, align 8, !tbaa !12
  %21 = getelementptr inbounds nuw double, ptr %9, i64 %18
  %22 = load double, ptr %21, align 8, !tbaa !12
  %23 = getelementptr inbounds nuw i32, ptr %1, i64 %indvars.iv
  %24 = load i32, ptr %23, align 4, !tbaa !11
  %25 = add nsw i32 %16, %24
  %26 = sext i32 %25 to i64
  %27 = getelementptr inbounds nuw double, ptr %11, i64 %26
  %28 = load double, ptr %27, align 8, !tbaa !12
  %29 = fsub double %20, %28
  %30 = fmul double %29, %29
  %31 = tail call double @llvm.fmuladd.f64(double %22, double %30, double %.121.us)
  %indvars.iv.next = add nuw nsw i64 %indvars.iv, 1
  %exitcond.not = icmp eq i64 %indvars.iv.next, %12
  br i1 %exitcond.not, label %._crit_edge.us, label %17, !llvm.loop !14

._crit_edge.us:                                   ; preds = %17
  %indvars.iv.next28 = add nuw nsw i64 %indvars.iv27, 1
  %exitcond31.not = icmp eq i64 %indvars.iv.next28, %12
  br i1 %exitcond31.not, label %._crit_edge24, label %.preheader.us, !llvm.loop !16

._crit_edge24:                                    ; preds = %._crit_edge.us, %2
  %.0.lcssa = phi double [ 0.000000e+00, %2 ], [ %31, %._crit_edge.us ]
  ret double %.0.lcssa
}